target datalayout = "e-m:e-p270:32:32-p271:32:32-p272:64:64-i64:64-i128:128-f80:128-n8:16:32:64-S128"
target triple = "x86_64-pc-linux-gnu"

%struct._php_ps_globals = type { ptr, ptr, ptr, ptr, ptr, i64, ptr, ptr, ptr, i8, i8, ptr, ptr, ptr, i32, ptr, i32, i32, %struct._php_random_status_state_pcgoneseq128xslrr64, %struct._php_random_algo_with_state, i64, i64, i64, i64, %struct.anon, ptr, i8, i8, i8, i8, i8, i8, i8, i8, ptr, %struct._zval_struct, i64, i64, ptr, ptr, ptr, i64, double, i8, i8, i8, i8, i8, i8, ptr }
%struct._php_random_status_state_pcgoneseq128xslrr64 = type { i128 }
%struct._php_random_algo_with_state = type { ptr, ptr }
%struct.anon = type { %struct._zval_struct, %struct._zval_struct, %struct._zval_struct, %struct._zval_struct, %struct._zval_struct, %struct._zval_struct, %struct._zval_struct, %struct._zval_struct, %struct._zval_struct }
%struct._zval_struct = type { %union._zend_value, %union.anon, %union.anon.3 }
%union._zend_value = type { i64 }
%union.anon = type { i32 }
%union.anon.3 = type { i32 }
%struct._zend_executor_globals = type { %struct._zval_struct, %struct._zval_struct, [32 x ptr], ptr, ptr, %struct._zend_array, %struct._zend_array, ptr, i32, i32, ptr, ptr, ptr, ptr, ptr, ptr, i64, ptr, ptr, i32, i32, i64, i32, i32, i32, i8, i8, %struct.zend_atomic_bool_s, %struct.zend_atomic_bool_s, ptr, i64, ptr, ptr, %struct._zend_array, %struct._zend_array, i32, i8, %struct._zval_struct, %struct._zval_struct, %struct._zend_stack, %struct._zend_stack, %struct._zend_stack, ptr, i32, i32, i64, ptr, ptr, ptr, %struct._zend_objects_store, ptr, ptr, ptr, [3 x %struct._zend_op], ptr, i8, i8, i64, i32, i32, ptr, [16 x %struct._HashTableIterator], ptr, %union._zend_function, %struct._zend_op, %struct._zend_array, i64, %struct.zend_get_gc_buffer, ptr, ptr, ptr, i64, i8, i32, ptr, ptr, i64, %struct._zend_call_stack, i64, i64, [6 x ptr] }
%struct.zend_atomic_bool_s = type { i8 }
%struct._zend_stack = type { i32, i32, i32, ptr }
%struct._zend_objects_store = type { ptr, i32, i32, i32 }
%struct._HashTableIterator = type { ptr, i32, i32 }
%union._zend_function = type { %struct._zend_op_array }
%struct._zend_op_array = type { i8, [3 x i8], i32, ptr, ptr, ptr, i32, i32, ptr, ptr, ptr, ptr, i32, i32, i32, i32, ptr, ptr, ptr, ptr, ptr, i32, i32, ptr, ptr, ptr, i32, i32, i32, i32, ptr, ptr, [6 x ptr] }
%struct._zend_op = type { ptr, %union._znode_op, %union._znode_op, %union._znode_op, i32, i32, i8, i8, i8, i8 }
%union._znode_op = type { i32 }
%struct._zend_array = type { %struct._zend_refcounted_h, %union.anon.5, i32, %union.anon.7, i32, i32, i32, i32, i64, ptr }
%struct._zend_refcounted_h = type { i32, %union.anon.4 }
%union.anon.4 = type { i32 }
%union.anon.5 = type { i32 }
%union.anon.7 = type { ptr }
%struct.zend_get_gc_buffer = type { ptr, ptr, ptr }
%struct._zend_call_stack = type { ptr, i64 }
%struct.ps_module_struct = type { ptr, ptr, ptr, ptr, ptr, ptr, ptr, ptr, ptr, ptr }
%struct.__jmp_buf_tag = type { [8 x i64], i32, %struct.__sigset_t }
%struct.__sigset_t = type { [16 x i64] }

@ps_globals = global %struct._php_ps_globals zeroinitializer, align 16
@executor_globals = external global %struct._zend_executor_globals, align 8

; Function Attrs: nounwind uwtable
define internal void @php_session_cleanup_filename() #0 {
  %1 = alloca ptr, align 8
  %2 = alloca i32, align 4
  %3 = alloca i32, align 4
  %4 = alloca ptr, align 8
  %5 = load ptr, ptr getelementptr inbounds (%struct._php_ps_globals, ptr @ps_globals, i32 0, i32 15), align 16
  %6 = icmp ne ptr %5, null
  br i1 %6, label %7, label %40

7:                                                ; preds = %0
  %8 = load ptr, ptr getelementptr inbounds (%struct._php_ps_globals, ptr @ps_globals, i32 0, i32 15), align 16
  store ptr %8, ptr %4, align 8
  %9 = load ptr, ptr %4, align 8
  %10 = getelementptr inbounds %struct._zend_refcounted_h, ptr %9, i32 0, i32 1
  %11 = load i32, ptr %10, align 4
  store i32 %11, ptr %2, align 4
  %12 = load i32, ptr %2, align 4
  %13 = and i32 %12, 1008
  %14 = and i32 %13, 64
  %15 = icmp ne i32 %14, 0
  br i1 %15, label %39, label %16

16:                                               ; preds = %7
  %17 = load ptr, ptr %4, align 8
  store ptr %17, ptr %1, align 8
  %18 = load ptr, ptr %1, align 8
  %19 = load i32, ptr %18, align 4
  %20 = icmp ugt i32 %19, 0
  call void @llvm.assume(i1 %20)
  %21 = load ptr, ptr %1, align 8
  %22 = load i32, ptr %21, align 4
  %23 = add i32 %22, -1
  store i32 %23, ptr %21, align 4
  %24 = icmp eq i32 %23, 0
  br i1 %24, label %25, label %38

25:                                               ; preds = %16
  %26 = load ptr, ptr %4, align 8
  %27 = getelementptr inbounds %struct._zend_refcounted_h, ptr %26, i32 0, i32 1
  %28 = load i32, ptr %27, align 4
  store i32 %28, ptr %3, align 4
  %29 = load i32, ptr %3, align 4
  %30 = and i32 %29, 1008
  %31 = and i32 %30, 128
  %32 = icmp ne i32 %31, 0
  br i1 %32, label %33, label %35

33:                                               ; preds = %25
  %34 = load ptr, ptr %4, align 8
  call void @free(ptr noundef %34) #14
  br label %37

35:                                               ; preds = %25
  %36 = load ptr, ptr %4, align 8
  call void @_efree(ptr noundef %36) #14
  br label %37

37:                                               ; preds = %35, %33
  br label %38

38:                                               ; preds = %37, %16
  br label %39

39:                                               ; preds = %38, %7
  store ptr null, ptr getelementptr inbounds (%struct._php_ps_globals, ptr @ps_globals, i32 0, i32 15), align 16
  store i32 0, ptr getelementptr inbounds (%struct._php_ps_globals, ptr @ps_globals, i32 0, i32 16), align 8
  br label %40

40:                                               ; preds = %39, %0
  ret void
}

; Function Attrs: nounwind uwtable
define internal void @php_rshutdown_session_globals() #0 {
  %1 = alloca ptr, align 8
  %2 = alloca ptr, align 8
  %3 = alloca ptr, align 8
  %4 = alloca i32, align 4
  %5 = alloca i32, align 4
  %6 = alloca ptr, align 8
  %7 = alloca i32, align 4
  %8 = alloca i32, align 4
  %9 = alloca ptr, align 8
  %10 = alloca i8, align 1
  %11 = alloca ptr, align 8
  %12 = alloca i8, align 1
  %13 = alloca ptr, align 8
  %14 = alloca ptr, align 8
  %15 = alloca [1 x %struct.__jmp_buf_tag], align 16
  store ptr getelementptr inbounds (%struct._php_ps_globals, ptr @ps_globals, i32 0, i32 35), ptr %13, align 8
  %16 = load ptr, ptr %13, align 8
  %17 = getelementptr inbounds %struct._zval_struct, ptr %16, i32 0, i32 1
  %18 = load i8, ptr %17, align 8
  %19 = zext i8 %18 to i32
  %20 = icmp eq i32 %19, 0
  br i1 %20, label %24, label %21

21:                                               ; preds = %0
  call void @zval_ptr_dtor(ptr noundef getelementptr inbounds (%struct._php_ps_globals, ptr @ps_globals, i32 0, i32 35))
  br label %22

22:                                               ; preds = %21
  store i32 0, ptr getelementptr inbounds (%struct._php_ps_globals, ptr @ps_globals, i32 0, i32 35, i32 1), align 8
  br label %23

23:                                               ; preds = %22
  br label %24

24:                                               ; preds = %23, %0
  %25 = load ptr, ptr getelementptr inbounds (%struct._php_ps_globals, ptr @ps_globals, i32 0, i32 13), align 16
  %26 = icmp ne ptr %25, null
  br i1 %26, label %30, label %27

27:                                               ; preds = %24
  %28 = load i8, ptr getelementptr inbounds (%struct._php_ps_globals, ptr @ps_globals, i32 0, i32 26), align 8
  %29 = trunc i8 %28 to i1
  br i1 %29, label %30, label %42

30:                                               ; preds = %27, %24
  %31 = load ptr, ptr getelementptr inbounds (%struct._zend_executor_globals, ptr @executor_globals, i32 0, i32 7), align 8
  store ptr %31, ptr %14, align 8
  store ptr %15, ptr getelementptr inbounds (%struct._zend_executor_globals, ptr @executor_globals, i32 0, i32 7), align 8
  %32 = getelementptr inbounds [1 x %struct.__jmp_buf_tag], ptr %15, i64 0, i64 0
  %33 = call i32 @__sigsetjmp(ptr noundef %32, i32 noundef 0) #13
  %34 = icmp eq i32 %33, 0
  br i1 %34, label %35, label %40

35:                                               ; preds = %30
  %36 = load ptr, ptr getelementptr inbounds (%struct._php_ps_globals, ptr @ps_globals, i32 0, i32 11), align 16
  %37 = getelementptr inbounds %struct.ps_module_struct, ptr %36, i32 0, i32 2
  %38 = load ptr, ptr %37, align 8
  %39 = call i32 %38(ptr noundef getelementptr inbounds (%struct._php_ps_globals, ptr @ps_globals, i32 0, i32 13))
  br label %40

40:                                               ; preds = %35, %30
  %41 = load ptr, ptr %14, align 8
  store ptr %41, ptr getelementptr inbounds (%struct._zend_executor_globals, ptr @executor_globals, i32 0, i32 7), align 8
  br label %42

42:                                               ; preds = %40, %27
  %43 = load ptr, ptr getelementptr inbounds (%struct._php_ps_globals, ptr @ps_globals, i32 0, i32 2), align 16
  %44 = icmp ne ptr %43, null
  br i1 %44, label %45, label %73

45:                                               ; preds = %42
  %46 = load ptr, ptr getelementptr inbounds (%struct._php_ps_globals, ptr @ps_globals, i32 0, i32 2), align 16
  store ptr %46, ptr %9, align 8
  store i8 0, ptr %10, align 1
  %47 = load ptr, ptr %9, align 8
  %48 = getelementptr inbounds %struct._zend_refcounted_h, ptr %47, i32 0, i32 1
  %49 = load i32, ptr %48, align 4
  store i32 %49, ptr %8, align 4
  %50 = load i32, ptr %8, align 4
  %51 = and i32 %50, 1008
  %52 = and i32 %51, 64
  %53 = icmp ne i32 %52, 0
  br i1 %53, label %72, label %54

54:                                               ; preds = %45
  %55 = load ptr, ptr %9, align 8
  store ptr %55, ptr %2, align 8
  %56 = load ptr, ptr %2, align 8
  %57 = load i32, ptr %56, align 4
  %58 = icmp ugt i32 %57, 0
  call void @llvm.assume(i1 %58)
  %59 = load ptr, ptr %2, align 8
  %60 = load i32, ptr %59, align 4
  %61 = add i32 %60, -1
  store i32 %61, ptr %59, align 4
  %62 = icmp eq i32 %61, 0
  br i1 %62, label %63, label %71

63:                                               ; preds = %54
  %64 = load i8, ptr %10, align 1
  %65 = trunc i8 %64 to i1
  br i1 %65, label %66, label %68

66:                                               ; preds = %63
  %67 = load ptr, ptr %9, align 8
  call void @free(ptr noundef %67) #14
  br label %70

68:                                               ; preds = %63
  %69 = load ptr, ptr %9, align 8
  call void @_efree(ptr noundef %69) #14
  br label %70

70:                                               ; preds = %68, %66
  br label %71

71:                                               ; preds = %70, %54
  br label %72

72:                                               ; preds = %71, %45
  store ptr null, ptr getelementptr inbounds (%struct._php_ps_globals, ptr @ps_globals, i32 0, i32 2), align 16
  br label %73

73:                                               ; preds = %72, %42
  %74 = load ptr, ptr getelementptr inbounds (%struct._php_ps_globals, ptr @ps_globals, i32 0, i32 49), align 8
  %75 = icmp ne ptr %74, null
  br i1 %75, label %76, label %104

76:                                               ; preds = %73
  %77 = load ptr, ptr getelementptr inbounds (%struct._php_ps_globals, ptr @ps_globals, i32 0, i32 49), align 8
  store ptr %77, ptr %11, align 8
  store i8 0, ptr %12, align 1
  %78 = load ptr, ptr %11, align 8
  %79 = getelementptr inbounds %struct._zend_refcounted_h, ptr %78, i32 0, i32 1
  %80 = load i32, ptr %79, align 4
  store i32 %80, ptr %7, align 4
  %81 = load i32, ptr %7, align 4
  %82 = and i32 %81, 1008
  %83 = and i32 %82, 64
  %84 = icmp ne i32 %83, 0
  br i1 %84, label %103, label %85

85:                                               ; preds = %76
  %86 = load ptr, ptr %11, align 8
  store ptr %86, ptr %1, align 8
  %87 = load ptr, ptr %1, align 8
  %88 = load i32, ptr %87, align 4
  %89 = icmp ugt i32 %88, 0
  call void @llvm.assume(i1 %89)
  %90 = load ptr, ptr %1, align 8
  %91 = load i32, ptr %90, align 4
  %92 = add i32 %91, -1
  store i32 %92, ptr %90, align 4
  %93 = icmp eq i32 %92, 0
  br i1 %93, label %94, label %102

94:                                               ; preds = %85
  %95 = load i8, ptr %12, align 1
  %96 = trunc i8 %95 to i1
  br i1 %96, label %97, label %99

97:                                               ; preds = %94
  %98 = load ptr, ptr %11, align 8
  call void @free(ptr noundef %98) #14
  br label %101

99:                                               ; preds = %94
  %100 = load ptr, ptr %11, align 8
  call void @_efree(ptr noundef %100) #14
  br label %101

101:                                              ; preds = %99, %97
  br label %102

102:                                              ; preds = %101, %85
  br label %103

103:                                              ; preds = %102, %76
  store ptr null, ptr getelementptr inbounds (%struct._php_ps_globals, ptr @ps_globals, i32 0, i32 49), align 8
  br label %104

104:                                              ; preds = %103, %73
  %105 = load ptr, ptr getelementptr inbounds (%struct._php_ps_globals, ptr @ps_globals, i32 0, i32 25), align 16
  %106 = icmp ne ptr %105, null
  br i1 %106, label %107, label %140

107:                                              ; preds = %104
  %108 = load ptr, ptr getelementptr inbounds (%struct._php_ps_globals, ptr @ps_globals, i32 0, i32 25), align 16
  store ptr %108, ptr %6, align 8
  %109 = load ptr, ptr %6, align 8
  %110 = getelementptr inbounds %struct._zend_refcounted_h, ptr %109, i32 0, i32 1
  %111 = load i32, ptr %110, align 4
  store i32 %111, ptr %4, align 4
  %112 = load i32, ptr %4, align 4
  %113 = and i32 %112, 1008
  %114 = and i32 %113, 64
  %115 = icmp ne i32 %114, 0
  br i1 %115, label %139, label %116

116:                                              ; preds = %107
  %117 = load ptr, ptr %6, align 8
  store ptr %117, ptr %3, align 8
  %118 = load ptr, ptr %3, align 8
  %119 = load i32, ptr %118, align 4
  %120 = icmp ugt i32 %119, 0
  call void @llvm.assume(i1 %120)
  %121 = load ptr, ptr %3, align 8
  %122 = load i32, ptr %121, align 4
  %123 = add i32 %122, -1
  store i32 %123, ptr %121, align 4
  %124 = icmp eq i32 %123, 0
  br i1 %124, label %125, label %138

125:                                              ; preds = %116
  %126 = load ptr, ptr %6, align 8
  %127 = getelementptr inbounds %struct._zend_refcounted_h, ptr %126, i32 0, i32 1
  %128 = load i32, ptr %127, align 4
  store i32 %128, ptr %5, align 4
  %129 = load i32, ptr %5, align 4
  %130 = and i32 %129, 1008
  %131 = and i32 %130, 128
  %132 = icmp ne i32 %131, 0
  br i1 %132, label %133, label %135

133:                                              ; preds = %125
  %134 = load ptr, ptr %6, align 8
  call void @free(ptr noundef %134) #14
  br label %137

135:                                              ; preds = %125
  %136 = load ptr, ptr %6, align 8
  call void @_efree(ptr noundef %136) #14
  br label %137

137:                                              ; preds = %135, %133
  br label %138

138:                                              ; preds = %137, %116
  br label %139

139:                                              ; preds = %138, %107
  store ptr null, ptr getelementptr inbounds (%struct._php_ps_globals, ptr @ps_globals, i32 0, i32 25), align 16
  br label %140

140:                                              ; preds = %139, %104
  call void @php_session_cleanup_filename()
  store i32 1, ptr getelementptr inbounds (%struct._php_ps_globals, ptr @ps_globals, i32 0, i32 14), align 8
  ret void
}