; Function Attrs: nounwind uwtable
define internal fastcc void @php_rshutdown_session_globals() unnamed_addr #0 {
  %1 = alloca [1 x %struct.__jmp_buf_tag], align 16
  %2 = load i8, ptr getelementptr inbounds (%struct._php_ps_globals, ptr @ps_globals, i64 0, i32 35, i32 1), align 16
  %3 = icmp eq i8 %2, 0
  br i1 %3, label %5, label %4

4:                                                ; preds = %0
  call void @zval_ptr_dtor(ptr noundef nonnull getelementptr inbounds (%struct._php_ps_globals, ptr @ps_globals, i64 0, i32 35)) #23
  store i32 0, ptr getelementptr inbounds (%struct._php_ps_globals, ptr @ps_globals, i64 0, i32 35, i32 1), align 16
  br label %5

5:                                                ; preds = %4, %0
  %6 = load ptr, ptr getelementptr inbounds (%struct._php_ps_globals, ptr @ps_globals, i64 0, i32 13), align 16
  %.not = icmp eq ptr %6, null
  br i1 %.not, label %7, label %10

7:                                                ; preds = %5
  %8 = load i8, ptr getelementptr inbounds (%struct._php_ps_globals, ptr @ps_globals, i64 0, i32 26), align 8
  %9 = and i8 %8, 1
  %.not28 = icmp eq i8 %9, 0
  br i1 %.not28, label %20, label %10

10:                                               ; preds = %7, %5
  %11 = load ptr, ptr getelementptr inbounds (%struct._zend_executor_globals, ptr @executor_globals, i64 0, i32 7), align 8
  store ptr %1, ptr getelementptr inbounds (%struct._zend_executor_globals, ptr @executor_globals, i64 0, i32 7), align 8
  %12 = call i32 @__sigsetjmp(ptr noundef nonnull %1, i32 noundef 0) #24
  %13 = icmp eq i32 %12, 0
  br i1 %13, label %14, label %19

14:                                               ; preds = %10
  %15 = load ptr, ptr getelementptr inbounds (%struct._php_ps_globals, ptr @ps_globals, i64 0, i32 11), align 16
  %16 = getelementptr inbounds i8, ptr %15, i64 16
  %17 = load ptr, ptr %16, align 8
  %18 = call i32 %17(ptr noundef nonnull getelementptr inbounds (%struct._php_ps_globals, ptr @ps_globals, i64 0, i32 13)) #23
  br label %19

19:                                               ; preds = %14, %10
  store ptr %11, ptr getelementptr inbounds (%struct._zend_executor_globals, ptr @executor_globals, i64 0, i32 7), align 8
  br label %20

20:                                               ; preds = %19, %7
  %21 = load ptr, ptr getelementptr inbounds (%struct._php_ps_globals, ptr @ps_globals, i64 0, i32 2), align 16
  %.not29 = icmp eq ptr %21, null
  br i1 %.not29, label %33, label %22

22:                                               ; preds = %20
  %23 = getelementptr inbounds i8, ptr %21, i64 4
  %24 = load i32, ptr %23, align 4
  %25 = and i32 %24, 64
  %.not30 = icmp eq i32 %25, 0
  br i1 %.not30, label %26, label %32

26:                                               ; preds = %22
  %27 = load i32, ptr %21, align 4
  %28 = icmp ne i32 %27, 0
  call void @llvm.assume(i1 %28)
  %29 = add i32 %27, -1
  store i32 %29, ptr %21, align 4
  %30 = icmp eq i32 %29, 0
  br i1 %30, label %31, label %32

31:                                               ; preds = %26
  call void @_efree(ptr noundef nonnull %21) #23
  br label %32

32:                                               ; preds = %26, %31, %22
  store ptr null, ptr getelementptr inbounds (%struct._php_ps_globals, ptr @ps_globals, i64 0, i32 2), align 16
  br label %33

33:                                               ; preds = %32, %20
  %34 = load ptr, ptr getelementptr inbounds (%struct._php_ps_globals, ptr @ps_globals, i64 0, i32 49), align 8
  %.not31 = icmp eq ptr %34, null
  br i1 %.not31, label %46, label %35

35:                                               ; preds = %33
  %36 = getelementptr inbounds i8, ptr %34, i64 4
  %37 = load i32, ptr %36, align 4
  %38 = and i32 %37, 64
  %.not32 = icmp eq i32 %38, 0
  br i1 %.not32, label %39, label %45

39:                                               ; preds = %35
  %40 = load i32, ptr %34, align 4
  %41 = icmp ne i32 %40, 0
  call void @llvm.assume(i1 %41)
  %42 = add i32 %40, -1
  store i32 %42, ptr %34, align 4
  %43 = icmp eq i32 %42, 0
  br i1 %43, label %44, label %45

44:                                               ; preds = %39
  call void @_efree(ptr noundef nonnull %34) #23
  br label %45

45:                                               ; preds = %39, %44, %35
  store ptr null, ptr getelementptr inbounds (%struct._php_ps_globals, ptr @ps_globals, i64 0, i32 49), align 8
  br label %46

46:                                               ; preds = %45, %33
  %47 = load ptr, ptr getelementptr inbounds (%struct._php_ps_globals, ptr @ps_globals, i64 0, i32 25), align 16
  %.not33 = icmp eq ptr %47, null
  br i1 %.not33, label %62, label %48

48:                                               ; preds = %46
  %49 = getelementptr inbounds i8, ptr %47, i64 4
  %50 = load i32, ptr %49, align 4
  %51 = and i32 %50, 64
  %.not34 = icmp eq i32 %51, 0
  br i1 %.not34, label %52, label %61

52:                                               ; preds = %48
  %53 = load i32, ptr %47, align 4
  %54 = icmp ne i32 %53, 0
  call void @llvm.assume(i1 %54)
  %55 = add i32 %53, -1
  store i32 %55, ptr %47, align 4
  %56 = icmp eq i32 %55, 0
  br i1 %56, label %57, label %61

57:                                               ; preds = %52
  %58 = and i32 %50, 128
  %.not35 = icmp eq i32 %58, 0
  br i1 %.not35, label %60, label %59

59:                                               ; preds = %57
  call void @free(ptr noundef nonnull %47) #23
  br label %61

60:                                               ; preds = %57
  call void @_efree(ptr noundef nonnull %47) #23
  br label %61

61:                                               ; preds = %52, %60, %59, %48
  store ptr null, ptr getelementptr inbounds (%struct._php_ps_globals, ptr @ps_globals, i64 0, i32 25), align 16
  br label %62

62:                                               ; preds = %61, %46
  %63 = load ptr, ptr getelementptr inbounds (%struct._php_ps_globals, ptr @ps_globals, i64 0, i32 15), align 16
  %.not.i = icmp eq ptr %63, null
  br i1 %.not.i, label %php_session_cleanup_filename.exit, label %64

64:                                               ; preds = %62
  %65 = getelementptr inbounds i8, ptr %63, i64 4
  %66 = load i32, ptr %65, align 4
  %67 = and i32 %66, 64
  %.not8.i = icmp eq i32 %67, 0
  br i1 %.not8.i, label %68, label %77

68:                                               ; preds = %64
  %69 = load i32, ptr %63, align 4
  %70 = icmp ne i32 %69, 0
  call void @llvm.assume(i1 %70)
  %71 = add i32 %69, -1
  store i32 %71, ptr %63, align 4
  %72 = icmp eq i32 %71, 0
  br i1 %72, label %73, label %77

73:                                               ; preds = %68
  %74 = and i32 %66, 128
  %.not9.i = icmp eq i32 %74, 0
  br i1 %.not9.i, label %76, label %75

75:                                               ; preds = %73
  call void @free(ptr noundef nonnull %63) #23
  br label %77

76:                                               ; preds = %73
  call void @_efree(ptr noundef nonnull %63) #23
  br label %77

77:                                               ; preds = %76, %75, %68, %64
  store ptr null, ptr getelementptr inbounds (%struct._php_ps_globals, ptr @ps_globals, i64 0, i32 15), align 16
  store i32 0, ptr getelementptr inbounds (%struct._php_ps_globals, ptr @ps_globals, i64 0, i32 16), align 8
  br label %php_session_cleanup_filename.exit

php_session_cleanup_filename.exit:                ; preds = %62, %77
  store i32 1, ptr getelementptr inbounds (%struct._php_ps_globals, ptr @ps_globals, i64 0, i32 14), align 8
  ret void
}